target datalayout = "e-m:e-p270:32:32-p271:32:32-p272:64:64-i64:64-i128:128-f80:128-n8:16:32:64-S128"
target triple = "x86_64-pc-linux-gnu"

%struct.gmx_sel_mempool_t = type { i64, i64, ptr, ptr, i32, ptr, i32, i64 }

@.str = private unnamed_addr constant [3 x i8] c"mp\00", align 1
@.str.1 = private unnamed_addr constant [127 x i8] c"generated/home/dtcxzyw/WorkSpace/Projects/compilers/llvm-opt-benchmark/bench/gromacs/gromacs/src/gromacs/selection/mempool.cpp\00", align 1

; Function Attrs: mustprogress uwtable
define internal void @_ZL13gmx_snew_implI17gmx_sel_mempool_tEvPKcS2_iRPT_m(ptr noundef %0, ptr noundef %1, i32 noundef %2, ptr noundef nonnull align 8 dereferenceable(8) %3, i64 noundef %4) #0 {
  %6 = alloca ptr, align 8
  %7 = alloca ptr, align 8
  %8 = alloca i32, align 4
  %9 = alloca ptr, align 8
  %10 = alloca i64, align 8
  store ptr %0, ptr %6, align 8
  store ptr %1, ptr %7, align 8
  store i32 %2, ptr %8, align 4
  store ptr %3, ptr %9, align 8
  store i64 %4, ptr %10, align 8
  %11 = load ptr, ptr %6, align 8
  %12 = load ptr, ptr %7, align 8
  %13 = load i32, ptr %8, align 4
  %14 = load i64, ptr %10, align 8
  %15 = call noundef ptr @_Z11save_callocPKcS0_imm(ptr noundef %11, ptr noundef %12, i32 noundef %13, i64 noundef %14, i64 noundef 64)
  %16 = load ptr, ptr %9, align 8
  store ptr %15, ptr %16, align 8
  ret void
}

; Function Attrs: mustprogress uwtable
define noundef ptr @_Z23_gmx_sel_mempool_createv() #0 {
  %1 = alloca ptr, align 8
  call void @_ZL13gmx_snew_implI17gmx_sel_mempool_tEvPKcS2_iRPT_m(ptr noundef @.str, ptr noundef @.str.1, i32 noundef 99, ptr noundef nonnull align 8 dereferenceable(8) %1, i64 noundef 1)
  %2 = load ptr, ptr %1, align 8
  %3 = getelementptr inbounds %struct.gmx_sel_mempool_t, ptr %2, i32 0, i32 0
  store i64 0, ptr %3, align 8
  %4 = load ptr, ptr %1, align 8
  %5 = getelementptr inbounds %struct.gmx_sel_mempool_t, ptr %4, i32 0, i32 1
  store i64 0, ptr %5, align 8
  %6 = load ptr, ptr %1, align 8
  %7 = getelementptr inbounds %struct.gmx_sel_mempool_t, ptr %6, i32 0, i32 2
  store ptr null, ptr %7, align 8
  %8 = load ptr, ptr %1, align 8
  %9 = getelementptr inbounds %struct.gmx_sel_mempool_t, ptr %8, i32 0, i32 3
  store ptr null, ptr %9, align 8
  %10 = load ptr, ptr %1, align 8
  %11 = getelementptr inbounds %struct.gmx_sel_mempool_t, ptr %10, i32 0, i32 4
  store i32 0, ptr %11, align 8
  %12 = load ptr, ptr %1, align 8
  %13 = getelementptr inbounds %struct.gmx_sel_mempool_t, ptr %12, i32 0, i32 5
  store ptr null, ptr %13, align 8
  %14 = load ptr, ptr %1, align 8
  %15 = getelementptr inbounds %struct.gmx_sel_mempool_t, ptr %14, i32 0, i32 6
  store i32 0, ptr %15, align 8
  %16 = load ptr, ptr %1, align 8
  %17 = getelementptr inbounds %struct.gmx_sel_mempool_t, ptr %16, i32 0, i32 7
  store i64 0, ptr %17, align 8
  %18 = load ptr, ptr %1, align 8
  ret ptr %18
}