; Function Attrs: mustprogress uwtable
define noundef ptr @_Z23_gmx_sel_mempool_createv() local_unnamed_addr #0 {
  %1 = tail call noundef ptr @_Z11save_callocPKcS0_imm(ptr noundef nonnull @.str, ptr noundef nonnull @.str.1, i32 noundef 99, i64 noundef 1, i64 noundef 64)
  %2 = getelementptr inbounds i8, ptr %1, i64 40
  store ptr null, ptr %2, align 8
  %3 = getelementptr inbounds i8, ptr %1, i64 48
  store i32 0, ptr %3, align 8
  %4 = getelementptr inbounds i8, ptr %1, i64 56
  store i64 0, ptr %4, align 8
  tail call void @llvm.memset.p0.i64(ptr noundef nonnull align 8 dereferenceable(36) %1, i8 0, i64 36, i1 false)
  ret ptr %1
}